target datalayout = "e-m:e-p270:32:32-p271:32:32-p272:64:64-i64:64-i128:128-f80:128-n8:16:32:64-S128"
target triple = "x86_64-pc-linux-gnu"

%struct._someip_parameter_union_uat = type { i32, ptr, i32, i32, i32, i32, i32, ptr, i32, i32, ptr }

@g_ascii_table = external constant ptr, align 8
@.str.402 = private unnamed_addr constant [51 x i8] c"Filter String contains illegal chars '.' (ID: %i )\00", align 1
@.str.403 = private unnamed_addr constant [51 x i8] c"Filter String contains illegal chars '%c' (ID: %i)\00", align 1
@.str.404 = private unnamed_addr constant [51 x i8] c"Filter String contains invalid byte \\%03o (ID: %i)\00", align 1
@.str.408 = private unnamed_addr constant [39 x i8] c"Union name cannot be empty (ID: 0x%x)!\00", align 1
@.str.409 = private unnamed_addr constant [38 x i8] c"Type Name cannot be empty (ID: 0x%x)!\00", align 1
@.str.410 = private unnamed_addr constant [42 x i8] c"A union cannot include itself (ID: 0x%x)!\00", align 1

; Function Attrs: null_pointer_is_valid sspstrong uwtable
define internal ptr @check_filter_string(ptr noundef %0, i32 noundef %1) #0 {
  %3 = alloca ptr, align 8
  %4 = alloca i32, align 4
  %5 = alloca ptr, align 8
  %6 = alloca i8, align 1
  store ptr %0, ptr %3, align 8
  store i32 %1, ptr %4, align 4
  call void @llvm.lifetime.start.p0(i64 8, ptr %5) #19
  store ptr null, ptr %5, align 8
  call void @llvm.lifetime.start.p0(i64 1, ptr %6) #19
  %7 = load ptr, ptr %3, align 8
  %8 = call zeroext i8 @proto_check_field_name(ptr noundef %7)
  store i8 %8, ptr %6, align 1
  %9 = load i8, ptr %6, align 1
  %10 = icmp ne i8 %9, 0
  br i1 %10, label %11, label %39

11:                                               ; preds = %2
  %12 = load i8, ptr %6, align 1
  %13 = zext i8 %12 to i32
  %14 = icmp eq i32 %13, 46
  br i1 %14, label %15, label %18

15:                                               ; preds = %11
  %16 = load i32, ptr %4, align 4
  %17 = call noalias ptr (ptr, ptr, ...) @wmem_strdup_printf(ptr noundef null, ptr noundef @.str.402, i32 noundef %16)
  store ptr %17, ptr %5, align 8
  br label %38

18:                                               ; preds = %11
  %19 = load ptr, ptr @g_ascii_table, align 8
  %20 = load i8, ptr %6, align 1
  %21 = zext i8 %20 to i64
  %22 = getelementptr i16, ptr %19, i64 %21
  %23 = load i16, ptr %22, align 2
  %24 = zext i16 %23 to i32
  %25 = and i32 %24, 64
  %26 = icmp ne i32 %25, 0
  br i1 %26, label %27, label %32

27:                                               ; preds = %18
  %28 = load i8, ptr %6, align 1
  %29 = zext i8 %28 to i32
  %30 = load i32, ptr %4, align 4
  %31 = call noalias ptr (ptr, ptr, ...) @wmem_strdup_printf(ptr noundef null, ptr noundef @.str.403, i32 noundef %29, i32 noundef %30)
  store ptr %31, ptr %5, align 8
  br label %37

32:                                               ; preds = %18
  %33 = load i8, ptr %6, align 1
  %34 = zext i8 %33 to i32
  %35 = load i32, ptr %4, align 4
  %36 = call noalias ptr (ptr, ptr, ...) @wmem_strdup_printf(ptr noundef null, ptr noundef @.str.404, i32 noundef %34, i32 noundef %35)
  store ptr %36, ptr %5, align 8
  br label %37

37:                                               ; preds = %32, %27
  br label %38

38:                                               ; preds = %37, %15
  br label %39

39:                                               ; preds = %38, %2
  %40 = load ptr, ptr %5, align 8
  call void @llvm.lifetime.end.p0(i64 1, ptr %6) #19
  call void @llvm.lifetime.end.p0(i64 8, ptr %5) #19
  ret ptr %40
}

; Function Attrs: null_pointer_is_valid sspstrong uwtable
define internal zeroext i1 @update_someip_parameter_union(ptr noundef %0, ptr noundef %1) #0 {
  %3 = alloca i1, align 1
  %4 = alloca ptr, align 8
  %5 = alloca ptr, align 8
  %6 = alloca ptr, align 8
  %7 = alloca ptr, align 8
  %8 = alloca i32, align 4
  store ptr %0, ptr %4, align 8
  store ptr %1, ptr %5, align 8
  call void @llvm.lifetime.start.p0(i64 8, ptr %6) #19
  %9 = load ptr, ptr %4, align 8
  store ptr %9, ptr %6, align 8
  call void @llvm.lifetime.start.p0(i64 8, ptr %7) #19
  %10 = load ptr, ptr %6, align 8
  %11 = getelementptr inbounds nuw %struct._someip_parameter_union_uat, ptr %10, i32 0, i32 1
  %12 = load ptr, ptr %11, align 8
  %13 = icmp eq ptr %12, null
  br i1 %13, label %22, label %14

14:                                               ; preds = %2
  %15 = load ptr, ptr %6, align 8
  %16 = getelementptr inbounds nuw %struct._someip_parameter_union_uat, ptr %15, i32 0, i32 1
  %17 = load ptr, ptr %16, align 8
  %18 = getelementptr i8, ptr %17, i64 0
  %19 = load i8, ptr %18, align 1
  %20 = sext i8 %19 to i32
  %21 = icmp eq i32 %20, 0
  br i1 %21, label %22, label %28

22:                                               ; preds = %14, %2
  %23 = load ptr, ptr %6, align 8
  %24 = getelementptr inbounds nuw %struct._someip_parameter_union_uat, ptr %23, i32 0, i32 0
  %25 = load i32, ptr %24, align 8
  %26 = call noalias ptr (ptr, ptr, ...) @wmem_strdup_printf(ptr noundef null, ptr noundef @.str.408, i32 noundef %25)
  %27 = load ptr, ptr %5, align 8
  store ptr %26, ptr %27, align 8
  store i1 false, ptr %3, align 1
  store i32 1, ptr %8, align 4
  br label %80

28:                                               ; preds = %14
  %29 = load ptr, ptr %6, align 8
  %30 = getelementptr inbounds nuw %struct._someip_parameter_union_uat, ptr %29, i32 0, i32 10
  %31 = load ptr, ptr %30, align 8
  %32 = load ptr, ptr %6, align 8
  %33 = getelementptr inbounds nuw %struct._someip_parameter_union_uat, ptr %32, i32 0, i32 0
  %34 = load i32, ptr %33, align 8
  %35 = call ptr @check_filter_string(ptr noundef %31, i32 noundef %34)
  store ptr %35, ptr %7, align 8
  %36 = load ptr, ptr %7, align 8
  %37 = icmp ne ptr %36, null
  br i1 %37, label %38, label %41

38:                                               ; preds = %28
  %39 = load ptr, ptr %7, align 8
  %40 = load ptr, ptr %5, align 8
  store ptr %39, ptr %40, align 8
  store i1 false, ptr %3, align 1
  store i32 1, ptr %8, align 4
  br label %80

41:                                               ; preds = %28
  %42 = load ptr, ptr %6, align 8
  %43 = getelementptr inbounds nuw %struct._someip_parameter_union_uat, ptr %42, i32 0, i32 7
  %44 = load ptr, ptr %43, align 8
  %45 = icmp eq ptr %44, null
  br i1 %45, label %54, label %46

46:                                               ; preds = %41
  %47 = load ptr, ptr %6, align 8
  %48 = getelementptr inbounds nuw %struct._someip_parameter_union_uat, ptr %47, i32 0, i32 7
  %49 = load ptr, ptr %48, align 8
  %50 = getelementptr i8, ptr %49, i64 0
  %51 = load i8, ptr %50, align 1
  %52 = sext i8 %51 to i32
  %53 = icmp eq i32 %52, 0
  br i1 %53, label %54, label %60

54:                                               ; preds = %46, %41
  %55 = load ptr, ptr %6, align 8
  %56 = getelementptr inbounds nuw %struct._someip_parameter_union_uat, ptr %55, i32 0, i32 0
  %57 = load i32, ptr %56, align 8
  %58 = call noalias ptr (ptr, ptr, ...) @wmem_strdup_printf(ptr noundef null, ptr noundef @.str.409, i32 noundef %57)
  %59 = load ptr, ptr %5, align 8
  store ptr %58, ptr %59, align 8
  store i1 false, ptr %3, align 1
  store i32 1, ptr %8, align 4
  br label %80

60:                                               ; preds = %46
  %61 = load ptr, ptr %6, align 8
  %62 = getelementptr inbounds nuw %struct._someip_parameter_union_uat, ptr %61, i32 0, i32 8
  %63 = load i32, ptr %62, align 8
  %64 = icmp eq i32 %63, 5
  br i1 %64, label %65, label %79

65:                                               ; preds = %60
  %66 = load ptr, ptr %6, align 8
  %67 = getelementptr inbounds nuw %struct._someip_parameter_union_uat, ptr %66, i32 0, i32 0
  %68 = load i32, ptr %67, align 8
  %69 = load ptr, ptr %6, align 8
  %70 = getelementptr inbounds nuw %struct._someip_parameter_union_uat, ptr %69, i32 0, i32 9
  %71 = load i32, ptr %70, align 4
  %72 = icmp eq i32 %68, %71
  br i1 %72, label %73, label %79

73:                                               ; preds = %65
  %74 = load ptr, ptr %6, align 8
  %75 = getelementptr inbounds nuw %struct._someip_parameter_union_uat, ptr %74, i32 0, i32 0
  %76 = load i32, ptr %75, align 8
  %77 = call noalias ptr (ptr, ptr, ...) @wmem_strdup_printf(ptr noundef null, ptr noundef @.str.410, i32 noundef %76)
  %78 = load ptr, ptr %5, align 8
  store ptr %77, ptr %78, align 8
  store i1 false, ptr %3, align 1
  store i32 1, ptr %8, align 4
  br label %80

79:                                               ; preds = %65, %60
  store i1 true, ptr %3, align 1
  store i32 1, ptr %8, align 4
  br label %80

80:                                               ; preds = %79, %73, %54, %38, %22
  call void @llvm.lifetime.end.p0(i64 8, ptr %7) #19
  call void @llvm.lifetime.end.p0(i64 8, ptr %6) #19
  %81 = load i1, ptr %3, align 1
  ret i1 %81
}