; Function Attrs: null_pointer_is_valid sspstrong uwtable
define internal noundef zeroext i1 @update_someip_parameter_union(ptr noundef readonly captures(none) %0, ptr noundef writeonly captures(none) %1) #0 {
  %3 = getelementptr inbounds nuw i8, ptr %0, i64 8
  %4 = load ptr, ptr %3, align 8
  %5 = icmp eq ptr %4, null
  br i1 %5, label %9, label %6

6:                                                ; preds = %2
  %7 = load i8, ptr %4, align 1
  %8 = icmp eq i8 %7, 0
  br i1 %8, label %9, label %12

9:                                                ; preds = %6, %2
  %10 = load i32, ptr %0, align 8
  %11 = tail call noalias ptr (ptr, ptr, ...) @wmem_strdup_printf(ptr noundef null, ptr noundef nonnull @.str.408, i32 noundef %10)
  br label %.sink.split

12:                                               ; preds = %6
  %13 = getelementptr inbounds nuw i8, ptr %0, i64 56
  %14 = load ptr, ptr %13, align 8
  %15 = load i32, ptr %0, align 8
  %16 = tail call zeroext i8 @proto_check_field_name(ptr noundef %14)
  %.not.i = icmp eq i8 %16, 0
  br i1 %.not.i, label %check_filter_string.exit.thread, label %17

17:                                               ; preds = %12
  %18 = zext i8 %16 to i32
  %19 = icmp eq i8 %16, 46
  br i1 %19, label %20, label %22

20:                                               ; preds = %17
  %21 = tail call noalias ptr (ptr, ptr, ...) @wmem_strdup_printf(ptr noundef null, ptr noundef nonnull @.str.402, i32 noundef %15)
  br label %check_filter_string.exit

22:                                               ; preds = %17
  %23 = load ptr, ptr @g_ascii_table, align 8
  %24 = zext i8 %16 to i64
  %25 = getelementptr i16, ptr %23, i64 %24
  %26 = load i16, ptr %25, align 2
  %27 = and i16 %26, 64
  %.not11.i = icmp eq i16 %27, 0
  br i1 %.not11.i, label %30, label %28

28:                                               ; preds = %22
  %29 = tail call noalias ptr (ptr, ptr, ...) @wmem_strdup_printf(ptr noundef null, ptr noundef nonnull @.str.403, i32 noundef %18, i32 noundef %15)
  br label %check_filter_string.exit

30:                                               ; preds = %22
  %31 = tail call noalias ptr (ptr, ptr, ...) @wmem_strdup_printf(ptr noundef null, ptr noundef nonnull @.str.404, i32 noundef %18, i32 noundef %15)
  br label %check_filter_string.exit

check_filter_string.exit:                         ; preds = %20, %28, %30
  %.0.i = phi ptr [ %21, %20 ], [ %29, %28 ], [ %31, %30 ]
  %.not = icmp eq ptr %.0.i, null
  br i1 %.not, label %check_filter_string.exit.thread, label %.sink.split

check_filter_string.exit.thread:                  ; preds = %12, %check_filter_string.exit
  %32 = getelementptr inbounds nuw i8, ptr %0, i64 40
  %33 = load ptr, ptr %32, align 8
  %34 = icmp eq ptr %33, null
  br i1 %34, label %38, label %35

35:                                               ; preds = %check_filter_string.exit.thread
  %36 = load i8, ptr %33, align 1
  %37 = icmp eq i8 %36, 0
  br i1 %37, label %38, label %41

38:                                               ; preds = %35, %check_filter_string.exit.thread
  %39 = load i32, ptr %0, align 8
  %40 = tail call noalias ptr (ptr, ptr, ...) @wmem_strdup_printf(ptr noundef null, ptr noundef nonnull @.str.409, i32 noundef %39)
  br label %.sink.split

41:                                               ; preds = %35
  %42 = getelementptr inbounds nuw i8, ptr %0, i64 48
  %43 = load i32, ptr %42, align 8
  %44 = icmp eq i32 %43, 5
  br i1 %44, label %45, label %52

45:                                               ; preds = %41
  %46 = load i32, ptr %0, align 8
  %47 = getelementptr inbounds nuw i8, ptr %0, i64 52
  %48 = load i32, ptr %47, align 4
  %49 = icmp eq i32 %46, %48
  br i1 %49, label %50, label %52

50:                                               ; preds = %45
  %51 = tail call noalias ptr (ptr, ptr, ...) @wmem_strdup_printf(ptr noundef null, ptr noundef nonnull @.str.410, i32 noundef %46)
  br label %.sink.split

.sink.split:                                      ; preds = %check_filter_string.exit, %9, %38, %50
  %.sink = phi ptr [ %51, %50 ], [ %40, %38 ], [ %11, %9 ], [ %.0.i, %check_filter_string.exit ]
  store ptr %.sink, ptr %1, align 8
  br label %52

52:                                               ; preds = %.sink.split, %41, %45
  %.0 = phi i1 [ true, %45 ], [ true, %41 ], [ false, %.sink.split ]
  ret i1 %.0
}